target datalayout = "e-m:e-p270:32:32-p271:32:32-p272:64:64-i64:64-i128:128-f80:128-n8:16:32:64-S128"
target triple = "x86_64-pc-linux-gnu"

%struct.Qureg = type { i32, i32, i32, i64, i64, i32, i32, %struct.ComplexArray, %struct.ComplexArray, %struct.ComplexArray, ptr, ptr, ptr, ptr, ptr, ptr }
%struct.ComplexArray = type { ptr, ptr }

@__func__.mixTwoQubitDepolarising = private unnamed_addr constant [24 x i8] c"mixTwoQubitDepolarising\00", align 1
@.str.35 = private unnamed_addr constant [96 x i8] c"Here, a homogeneous depolarising error occured on qubits %d and %d with total probability %.14g\00", align 1

; Function Attrs: nounwind uwtable
define void @mixTwoQubitDepolarising(ptr noundef byval(%struct.Qureg) align 8 %0, i32 noundef %1, i32 noundef %2, double noundef %3) #0 {
  %5 = alloca i32, align 4
  %6 = alloca i32, align 4
  %7 = alloca double, align 8
  store i32 %1, ptr %5, align 4, !tbaa !4
  store i32 %2, ptr %6, align 4, !tbaa !4
  store double %3, ptr %7, align 8, !tbaa !25
  call void @validateDensityMatrQureg(ptr noundef byval(%struct.Qureg) align 8 %0, ptr noundef @__func__.mixTwoQubitDepolarising)
  %8 = load i32, ptr %5, align 4, !tbaa !4
  %9 = load i32, ptr %6, align 4, !tbaa !4
  call void @validateUniqueTargets(ptr noundef byval(%struct.Qureg) align 8 %0, i32 noundef %8, i32 noundef %9, ptr noundef @__func__.mixTwoQubitDepolarising)
  %10 = load double, ptr %7, align 8, !tbaa !25
  call void @validateTwoQubitDepolProb(double noundef %10, ptr noundef @__func__.mixTwoQubitDepolarising)
  call void @ensureIndsIncrease(ptr noundef %5, ptr noundef %6)
  %11 = load i32, ptr %5, align 4, !tbaa !4
  %12 = load i32, ptr %6, align 4, !tbaa !4
  %13 = load double, ptr %7, align 8, !tbaa !25
  %14 = fmul double 1.600000e+01, %13
  %15 = fdiv double %14, 1.500000e+01
  call void @densmatr_mixTwoQubitDepolarising(ptr noundef byval(%struct.Qureg) align 8 %0, i32 noundef %11, i32 noundef %12, double noundef %15)
  %16 = load i32, ptr %5, align 4, !tbaa !4
  %17 = load i32, ptr %6, align 4, !tbaa !4
  %18 = load double, ptr %7, align 8, !tbaa !25
  call void (ptr, ptr, ...) @qasm_recordComment(ptr noundef byval(%struct.Qureg) align 8 %0, ptr noundef @.str.35, i32 noundef %16, i32 noundef %17, double noundef %18)
  ret void
}