; Function Attrs: nounwind uwtable
define void @mixTwoQubitDepolarising(ptr noundef readonly byval(%struct.Qureg) align 8 captures(none) %0, i32 noundef %1, i32 noundef %2, double noundef %3) local_unnamed_addr #0 {
  %5 = alloca i32, align 4
  %6 = alloca i32, align 4
  store i32 %1, ptr %5, align 4, !tbaa !20
  store i32 %2, ptr %6, align 4, !tbaa !20
  tail call void @validateDensityMatrQureg(ptr noundef nonnull byval(%struct.Qureg) align 8 %0, ptr noundef nonnull @__func__.mixTwoQubitDepolarising) #17
  tail call void @validateUniqueTargets(ptr noundef nonnull byval(%struct.Qureg) align 8 %0, i32 noundef %1, i32 noundef %2, ptr noundef nonnull @__func__.mixTwoQubitDepolarising) #17
  tail call void @validateTwoQubitDepolProb(double noundef %3, ptr noundef nonnull @__func__.mixTwoQubitDepolarising) #17
  call void @ensureIndsIncrease(ptr noundef nonnull %5, ptr noundef nonnull %6) #17
  %7 = load i32, ptr %5, align 4, !tbaa !20
  %8 = load i32, ptr %6, align 4, !tbaa !20
  %9 = fmul double %3, 1.600000e+01
  %10 = fdiv double %9, 1.500000e+01
  call void @densmatr_mixTwoQubitDepolarising(ptr noundef nonnull byval(%struct.Qureg) align 8 %0, i32 noundef %7, i32 noundef %8, double noundef %10) #17
  %11 = load i32, ptr %5, align 4, !tbaa !20
  %12 = load i32, ptr %6, align 4, !tbaa !20
  call void (ptr, ptr, ...) @qasm_recordComment(ptr noundef nonnull byval(%struct.Qureg) align 8 %0, ptr noundef nonnull @.str.35, i32 noundef %11, i32 noundef %12, double noundef %3) #17
  ret void
}